#include <math.h>
#include <stdio.h>
#include <stdlib.h>
#include <string.h>
#define ASCII 100
#define MAX_N 100
#define MAX_M 100
#define ASC 100
#define null 0
#define Len 100
#define SUM 100
#define NUMBER 100
#define SIZE 100
#define MAXN 100
#define MAXSIZE 100
#define maxrow 100
#define maxcol 100
#define mx 100
#define NUM 100
#define ROW 100
#define COL 100
#define SIZEE 100
#define MAX_LEN 100
#define LIU 100
#define maxsize 100
#define NUM 100
#define NO 100
#define Null 0
#define ID_DIGITS 100
#define INT_MAX 100
#define INT_MIN 100
#define FALSE 0
#define TRUE 1
#define hang 100
#define lie 100
#define lll 100
#define LEM 100
#define K 100
#define INF 100
#define MONTH 12
#define true 1
#define PI 100
#define maxlen 100
#define maxinputint 100
#define STUDENT_NUM 100
#define TOTAL 100
#define LEN1 100
#define student_num 100
#define MAXLEN 100
#define MAXL 100
#define nMax 100
#define Vocabularysize 100
#define Sentencelength 100
#define LENGTH 100
#define ARRAY 100
#define len 100
#define j 100
#define tsuhu 100
#define l 100
#define p 100
#define h 100
#define maxn 100
#define MAXLENGTH 100
#define SEX 100

#define a1 31
#define a3 31
#define a4 30
#define a5 31
#define a6 30
#define a7 31
#define a8 31
#define a9 30
#define a10 31
#define a11 30
#define a12 31

int main(){
	int year,month,day,x;
	int a2;
	scanf("%d %d %d",&year,&month,&day);
	if(year%4==0&&year%100!=0)
	{a2=29;}
	else
	{a2=28;}
	
	switch(month){
	case 1:
		x=day;
		printf("%d",x);
		break;
	case 2:
		x=a1+day;
		printf("%d",x);
		break;
    case 3:
		x=a1+a2+day;
		printf("%d",x);
		break;
    case 4:
		printf("%d",x);
        x=a1+a2+a3+day;
		break;
    case 5:
		x=a1+a2+a3+a4+day;
		printf("%d",x);
		break;
    case 6:
		x=a1+a2+a3+a4+a5+day;
		printf("%d",x);
        break;
    case 7:
		x=a1+a2+a3+a4+a5+a6+day;
		printf("%d",x);
		break;
    case 8:
		x=a1+a2+a3+a4+a5+a6+a7+day;
		printf("%d",x);
		break;
    case 9:
		x=a1+a2+a3+a4+a5+a6+a7+a8+day;
		printf("%d",x);
		break;
    case 10:
		x=a1+a2+a3+a4+a5+a6+a7+a8+a9+day;
		printf("%d",x);
		break;
    case 11:
		x=a1+a2+a3+a4+a5+a6+a7+a8+a9+a10+day;
		printf("%d",x);
		break;
    case 12:
		x=a1+a2+a3+a4+a5+a6+a7+a8+a9+a10+a11+day;
		printf("%d",x);
		break;
	}

	return 0;
}
