; ModuleID = '25.c'
source_filename = "25.c"
target datalayout = "e-m:e-p270:32:32-p271:32:32-p272:64:64-i64:64-f80:128-n8:16:32:64-S128"
target triple = "x86_64-pc-linux-gnu"

@.str = private unnamed_addr constant [9 x i8] c"%d %d %d\00", align 1
@.str.1 = private unnamed_addr constant [3 x i8] c"%d\00", align 1

; Function Attrs: noinline nounwind uwtable
define dso_local i32 @main() #0 {
  %1 = alloca i32, align 4
  %2 = alloca i32, align 4
  %3 = alloca i32, align 4
  %4 = alloca i32, align 4
  %5 = alloca i32, align 4
  %6 = alloca i32, align 4
  store i32 0, i32* %1, align 4
  %7 = call i32 (i8*, ...) @__isoc99_scanf(i8* getelementptr inbounds ([9 x i8], [9 x i8]* @.str, i64 0, i64 0), i32* %2, i32* %3, i32* %4)
  %8 = load i32, i32* %2, align 4
  %9 = srem i32 %8, 4
  %10 = icmp eq i32 %9, 0
  br i1 %10, label %11, label %16

11:                                               ; preds = %0
  %12 = load i32, i32* %2, align 4
  %13 = srem i32 %12, 100
  %14 = icmp ne i32 %13, 0
  br i1 %14, label %15, label %16

15:                                               ; preds = %11
  store i32 29, i32* %6, align 4
  br label %17

16:                                               ; preds = %11, %0
  store i32 28, i32* %6, align 4
  br label %17

17:                                               ; preds = %16, %15
  %18 = load i32, i32* %3, align 4
  switch i32 %18, label %143 [
    i32 1, label %19
    i32 2, label %23
    i32 3, label %28
    i32 4, label %35
    i32 5, label %43
    i32 6, label %52
    i32 7, label %62
    i32 8, label %73
    i32 9, label %85
    i32 10, label %98
    i32 11, label %112
    i32 12, label %127
  ]

19:                                               ; preds = %17
  %20 = load i32, i32* %4, align 4
  store i32 %20, i32* %5, align 4
  %21 = load i32, i32* %5, align 4
  %22 = call i32 (i8*, ...) @printf(i8* getelementptr inbounds ([3 x i8], [3 x i8]* @.str.1, i64 0, i64 0), i32 %21)
  br label %143

23:                                               ; preds = %17
  %24 = load i32, i32* %4, align 4
  %25 = add nsw i32 31, %24
  store i32 %25, i32* %5, align 4
  %26 = load i32, i32* %5, align 4
  %27 = call i32 (i8*, ...) @printf(i8* getelementptr inbounds ([3 x i8], [3 x i8]* @.str.1, i64 0, i64 0), i32 %26)
  br label %143

28:                                               ; preds = %17
  %29 = load i32, i32* %6, align 4
  %30 = add nsw i32 31, %29
  %31 = load i32, i32* %4, align 4
  %32 = add nsw i32 %30, %31
  store i32 %32, i32* %5, align 4
  %33 = load i32, i32* %5, align 4
  %34 = call i32 (i8*, ...) @printf(i8* getelementptr inbounds ([3 x i8], [3 x i8]* @.str.1, i64 0, i64 0), i32 %33)
  br label %143

35:                                               ; preds = %17
  %36 = load i32, i32* %5, align 4
  %37 = call i32 (i8*, ...) @printf(i8* getelementptr inbounds ([3 x i8], [3 x i8]* @.str.1, i64 0, i64 0), i32 %36)
  %38 = load i32, i32* %6, align 4
  %39 = add nsw i32 31, %38
  %40 = add nsw i32 %39, 31
  %41 = load i32, i32* %4, align 4
  %42 = add nsw i32 %40, %41
  store i32 %42, i32* %5, align 4
  br label %143

43:                                               ; preds = %17
  %44 = load i32, i32* %6, align 4
  %45 = add nsw i32 31, %44
  %46 = add nsw i32 %45, 31
  %47 = add nsw i32 %46, 30
  %48 = load i32, i32* %4, align 4
  %49 = add nsw i32 %47, %48
  store i32 %49, i32* %5, align 4
  %50 = load i32, i32* %5, align 4
  %51 = call i32 (i8*, ...) @printf(i8* getelementptr inbounds ([3 x i8], [3 x i8]* @.str.1, i64 0, i64 0), i32 %50)
  br label %143

52:                                               ; preds = %17
  %53 = load i32, i32* %6, align 4
  %54 = add nsw i32 31, %53
  %55 = add nsw i32 %54, 31
  %56 = add nsw i32 %55, 30
  %57 = add nsw i32 %56, 31
  %58 = load i32, i32* %4, align 4
  %59 = add nsw i32 %57, %58
  store i32 %59, i32* %5, align 4
  %60 = load i32, i32* %5, align 4
  %61 = call i32 (i8*, ...) @printf(i8* getelementptr inbounds ([3 x i8], [3 x i8]* @.str.1, i64 0, i64 0), i32 %60)
  br label %143

62:                                               ; preds = %17
  %63 = load i32, i32* %6, align 4
  %64 = add nsw i32 31, %63
  %65 = add nsw i32 %64, 31
  %66 = add nsw i32 %65, 30
  %67 = add nsw i32 %66, 31
  %68 = add nsw i32 %67, 30
  %69 = load i32, i32* %4, align 4
  %70 = add nsw i32 %68, %69
  store i32 %70, i32* %5, align 4
  %71 = load i32, i32* %5, align 4
  %72 = call i32 (i8*, ...) @printf(i8* getelementptr inbounds ([3 x i8], [3 x i8]* @.str.1, i64 0, i64 0), i32 %71)
  br label %143

73:                                               ; preds = %17
  %74 = load i32, i32* %6, align 4
  %75 = add nsw i32 31, %74
  %76 = add nsw i32 %75, 31
  %77 = add nsw i32 %76, 30
  %78 = add nsw i32 %77, 31
  %79 = add nsw i32 %78, 30
  %80 = add nsw i32 %79, 31
  %81 = load i32, i32* %4, align 4
  %82 = add nsw i32 %80, %81
  store i32 %82, i32* %5, align 4
  %83 = load i32, i32* %5, align 4
  %84 = call i32 (i8*, ...) @printf(i8* getelementptr inbounds ([3 x i8], [3 x i8]* @.str.1, i64 0, i64 0), i32 %83)
  br label %143

85:                                               ; preds = %17
  %86 = load i32, i32* %6, align 4
  %87 = add nsw i32 31, %86
  %88 = add nsw i32 %87, 31
  %89 = add nsw i32 %88, 30
  %90 = add nsw i32 %89, 31
  %91 = add nsw i32 %90, 30
  %92 = add nsw i32 %91, 31
  %93 = add nsw i32 %92, 31
  %94 = load i32, i32* %4, align 4
  %95 = add nsw i32 %93, %94
  store i32 %95, i32* %5, align 4
  %96 = load i32, i32* %5, align 4
  %97 = call i32 (i8*, ...) @printf(i8* getelementptr inbounds ([3 x i8], [3 x i8]* @.str.1, i64 0, i64 0), i32 %96)
  br label %143

98:                                               ; preds = %17
  %99 = load i32, i32* %6, align 4
  %100 = add nsw i32 31, %99
  %101 = add nsw i32 %100, 31
  %102 = add nsw i32 %101, 30
  %103 = add nsw i32 %102, 31
  %104 = add nsw i32 %103, 30
  %105 = add nsw i32 %104, 31
  %106 = add nsw i32 %105, 31
  %107 = add nsw i32 %106, 30
  %108 = load i32, i32* %4, align 4
  %109 = add nsw i32 %107, %108
  store i32 %109, i32* %5, align 4
  %110 = load i32, i32* %5, align 4
  %111 = call i32 (i8*, ...) @printf(i8* getelementptr inbounds ([3 x i8], [3 x i8]* @.str.1, i64 0, i64 0), i32 %110)
  br label %143

112:                                              ; preds = %17
  %113 = load i32, i32* %6, align 4
  %114 = add nsw i32 31, %113
  %115 = add nsw i32 %114, 31
  %116 = add nsw i32 %115, 30
  %117 = add nsw i32 %116, 31
  %118 = add nsw i32 %117, 30
  %119 = add nsw i32 %118, 31
  %120 = add nsw i32 %119, 31
  %121 = add nsw i32 %120, 30
  %122 = add nsw i32 %121, 31
  %123 = load i32, i32* %4, align 4
  %124 = add nsw i32 %122, %123
  store i32 %124, i32* %5, align 4
  %125 = load i32, i32* %5, align 4
  %126 = call i32 (i8*, ...) @printf(i8* getelementptr inbounds ([3 x i8], [3 x i8]* @.str.1, i64 0, i64 0), i32 %125)
  br label %143

127:                                              ; preds = %17
  %128 = load i32, i32* %6, align 4
  %129 = add nsw i32 31, %128
  %130 = add nsw i32 %129, 31
  %131 = add nsw i32 %130, 30
  %132 = add nsw i32 %131, 31
  %133 = add nsw i32 %132, 30
  %134 = add nsw i32 %133, 31
  %135 = add nsw i32 %134, 31
  %136 = add nsw i32 %135, 30
  %137 = add nsw i32 %136, 31
  %138 = add nsw i32 %137, 30
  %139 = load i32, i32* %4, align 4
  %140 = add nsw i32 %138, %139
  store i32 %140, i32* %5, align 4
  %141 = load i32, i32* %5, align 4
  %142 = call i32 (i8*, ...) @printf(i8* getelementptr inbounds ([3 x i8], [3 x i8]* @.str.1, i64 0, i64 0), i32 %141)
  br label %143

143:                                              ; preds = %17, %127, %112, %98, %85, %73, %62, %52, %43, %35, %28, %23, %19
  ret i32 0
}

declare dso_local i32 @__isoc99_scanf(i8*, ...) #1

declare dso_local i32 @printf(i8*, ...) #1


!llvm.module.flags = !{!0}
!llvm.ident = !{!1}

!0 = !{i32 1, !"wchar_size", i32 4}
!1 = !{!"clang version 10.0.0-4ubuntu1 "}
